target datalayout = "e-m:e-p270:32:32-p271:32:32-p272:64:64-i64:64-i128:128-f80:128-n8:16:32:64-S128"
target triple = "x86_64-unknown-linux-gnu"

; Function Attrs: mustprogress nounwind uwtable
define linkonce_odr noundef ptr @_ZN6icu_758Collator11toUCollatorEv(ptr noundef nonnull align 8 dereferenceable(8) %this) #1 comdat align 2 {
entry:
  %this.addr = alloca ptr, align 8
  store ptr %this, ptr %this.addr, align 8
  %this1 = load ptr, ptr %this.addr, align 8
  ret ptr %this1
}

; Function Attrs: mustprogress nounwind uwtable
define linkonce_odr noundef ptr @_ZN6icu_758Collator13fromUCollatorEPK9UCollator(ptr noundef %uc) #1 comdat align 2 {
entry:
  %uc.addr = alloca ptr, align 8
  store ptr %uc, ptr %uc.addr, align 8
  %0 = load ptr, ptr %uc.addr, align 8
  ret ptr %0
}

; Function Attrs: mustprogress nounwind uwtable
define internal noundef signext i8 @_ZL9U_FAILURE10UErrorCode(i32 noundef %code) #1 {
entry:
  %code.addr = alloca i32, align 4
  store i32 %code, ptr %code.addr, align 4
  %0 = load i32, ptr %code.addr, align 4
  %cmp = icmp sgt i32 %0, 0
  %conv = zext i1 %cmp to i8
  ret i8 %conv
}

; Function Attrs: mustprogress uwtable
define ptr @ucol_safeClone_75(ptr noundef %coll, ptr noundef %0, ptr noundef %pBufferSize, ptr noundef %status) #0 {
entry:
  %retval = alloca ptr, align 8
  %coll.addr = alloca ptr, align 8
  %.addr = alloca ptr, align 8
  %pBufferSize.addr = alloca ptr, align 8
  %status.addr = alloca ptr, align 8
  %inputSize = alloca i32, align 4
  %newColl = alloca ptr, align 8
  store ptr %coll, ptr %coll.addr, align 8
  store ptr %0, ptr %.addr, align 8
  store ptr %pBufferSize, ptr %pBufferSize.addr, align 8
  store ptr %status, ptr %status.addr, align 8
  %1 = load ptr, ptr %status.addr, align 8
  %cmp = icmp eq ptr %1, null
  br i1 %cmp, label %if.then, label %lor.lhs.false

lor.lhs.false:                                    ; preds = %entry
  %2 = load ptr, ptr %status.addr, align 8
  %3 = load i32, ptr %2, align 4
  %call = call noundef signext i8 @_ZL9U_FAILURE10UErrorCode(i32 noundef %3)
  %tobool = icmp ne i8 %call, 0
  br i1 %tobool, label %if.then, label %if.end

if.then:                                          ; preds = %lor.lhs.false, %entry
  store ptr null, ptr %retval, align 8
  br label %return

if.end:                                           ; preds = %lor.lhs.false
  %4 = load ptr, ptr %coll.addr, align 8
  %cmp1 = icmp eq ptr %4, null
  br i1 %cmp1, label %if.then2, label %if.end3

if.then2:                                         ; preds = %if.end
  %5 = load ptr, ptr %status.addr, align 8
  store i32 1, ptr %5, align 4
  store ptr null, ptr %retval, align 8
  br label %return

if.end3:                                          ; preds = %if.end
  %6 = load ptr, ptr %pBufferSize.addr, align 8
  %cmp4 = icmp ne ptr %6, null
  br i1 %cmp4, label %if.then5, label %if.end9

if.then5:                                         ; preds = %if.end3
  %7 = load ptr, ptr %pBufferSize.addr, align 8
  %8 = load i32, ptr %7, align 4
  store i32 %8, ptr %inputSize, align 4
  %9 = load ptr, ptr %pBufferSize.addr, align 8
  store i32 1, ptr %9, align 4
  %10 = load i32, ptr %inputSize, align 4
  %cmp6 = icmp eq i32 %10, 0
  br i1 %cmp6, label %if.then7, label %if.end8

if.then7:                                         ; preds = %if.then5
  store ptr null, ptr %retval, align 8
  br label %return

if.end8:                                          ; preds = %if.then5
  br label %if.end9

if.end9:                                          ; preds = %if.end8, %if.end3
  %11 = load ptr, ptr %coll.addr, align 8
  %call10 = call noundef ptr @_ZN6icu_758Collator13fromUCollatorEPK9UCollator(ptr noundef %11)
  %vtable = load ptr, ptr %call10, align 8
  %vfn = getelementptr inbounds ptr, ptr %vtable, i64 5
  %12 = load ptr, ptr %vfn, align 8
  %call11 = call noundef ptr %12(ptr noundef nonnull align 8 dereferenceable(8) %call10)
  store ptr %call11, ptr %newColl, align 8
  %13 = load ptr, ptr %newColl, align 8
  %cmp12 = icmp eq ptr %13, null
  br i1 %cmp12, label %if.then13, label %if.else

if.then13:                                        ; preds = %if.end9
  %14 = load ptr, ptr %status.addr, align 8
  store i32 7, ptr %14, align 4
  store ptr null, ptr %retval, align 8
  br label %return

if.else:                                          ; preds = %if.end9
  %15 = load ptr, ptr %pBufferSize.addr, align 8
  %cmp14 = icmp ne ptr %15, null
  br i1 %cmp14, label %if.then15, label %if.end16

if.then15:                                        ; preds = %if.else
  %16 = load ptr, ptr %status.addr, align 8
  store i32 -126, ptr %16, align 4
  br label %if.end16

if.end16:                                         ; preds = %if.then15, %if.else
  br label %if.end17

if.end17:                                         ; preds = %if.end16
  %17 = load ptr, ptr %newColl, align 8
  %call18 = call noundef ptr @_ZN6icu_758Collator11toUCollatorEv(ptr noundef nonnull align 8 dereferenceable(8) %17)
  store ptr %call18, ptr %retval, align 8
  br label %return

return:                                           ; preds = %if.end17, %if.then13, %if.then7, %if.then2, %if.then
  %18 = load ptr, ptr %retval, align 8
  ret ptr %18
}