; Function Attrs: mustprogress uwtable
define noundef ptr @ucol_safeClone_75(ptr noundef %coll, ptr nocapture noundef readnone %0, ptr noundef %pBufferSize, ptr noundef %status) local_unnamed_addr #0 {
entry:
  %cmp = icmp eq ptr %status, null
  br i1 %cmp, label %return, label %lor.lhs.false

lor.lhs.false:                                    ; preds = %entry
  %1 = load i32, ptr %status, align 4
  %cmp.i = icmp slt i32 %1, 1
  br i1 %cmp.i, label %if.end, label %return

if.end:                                           ; preds = %lor.lhs.false
  %cmp1 = icmp eq ptr %coll, null
  br i1 %cmp1, label %return.sink.split, label %if.end3

if.end3:                                          ; preds = %if.end
  %cmp4.not = icmp ne ptr %pBufferSize, null
  br i1 %cmp4.not, label %if.then5, label %if.end9

if.then5:                                         ; preds = %if.end3
  %2 = load i32, ptr %pBufferSize, align 4
  store i32 1, ptr %pBufferSize, align 4
  %cmp6 = icmp eq i32 %2, 0
  br i1 %cmp6, label %return, label %if.end9

if.end9:                                          ; preds = %if.then5, %if.end3
  %vtable = load ptr, ptr %coll, align 8
  %vfn = getelementptr inbounds i8, ptr %vtable, i64 40
  %3 = load ptr, ptr %vfn, align 8
  %call11 = tail call noundef ptr %3(ptr noundef nonnull align 8 dereferenceable(8) %coll)
  %cmp12 = icmp eq ptr %call11, null
  %brmerge = or i1 %cmp12, %cmp4.not
  %.mux = select i1 %cmp12, i32 7, i32 -126
  br i1 %brmerge, label %return.sink.split, label %return

return.sink.split:                                ; preds = %if.end9, %if.end
  %.sink = phi i32 [ 1, %if.end ], [ %.mux, %if.end9 ]
  %retval.0.ph = phi ptr [ null, %if.end ], [ %call11, %if.end9 ]
  store i32 %.sink, ptr %status, align 4
  br label %return

return:                                           ; preds = %if.end9, %return.sink.split, %if.then5, %entry, %lor.lhs.false
  %retval.0 = phi ptr [ null, %lor.lhs.false ], [ null, %entry ], [ null, %if.then5 ], [ %retval.0.ph, %return.sink.split ], [ %call11, %if.end9 ]
  ret ptr %retval.0
}